; Function Attrs: nounwind uwtable
define i32 @exr_get_name(ptr noundef %0, i32 noundef %1, ptr noundef writeonly %2) local_unnamed_addr #0 {
  %.not = icmp eq ptr %0, null
  br i1 %.not, label %76, label %4

4:                                                ; preds = %3
  %5 = load i8, ptr %0, align 8, !tbaa !3
  %6 = icmp eq i8 %5, 1
  br i1 %6, label %7, label %10

7:                                                ; preds = %4
  %8 = getelementptr inbounds nuw i8, ptr %0, i64 504
  %9 = tail call i32 @pthread_mutex_lock(ptr noundef nonnull %8) #6
  br label %10

10:                                               ; preds = %7, %4
  %11 = icmp slt i32 %1, 0
  br i1 %11, label %15, label %12

12:                                               ; preds = %10
  %13 = getelementptr inbounds nuw i8, ptr %0, i64 196
  %14 = load i32, ptr %13, align 4, !tbaa !22
  %.not35 = icmp slt i32 %1, %14
  br i1 %.not35, label %25, label %15

15:                                               ; preds = %12, %10
  %16 = load i8, ptr %0, align 8, !tbaa !3
  %17 = icmp eq i8 %16, 1
  br i1 %17, label %18, label %21

18:                                               ; preds = %15
  %19 = getelementptr inbounds nuw i8, ptr %0, i64 504
  %20 = tail call i32 @pthread_mutex_unlock(ptr noundef nonnull %19) #6
  br label %21

21:                                               ; preds = %18, %15
  %22 = getelementptr inbounds nuw i8, ptr %0, i64 72
  %23 = load ptr, ptr %22, align 8, !tbaa !23
  %24 = tail call i32 (ptr, i32, ptr, ...) %23(ptr noundef nonnull %0, i32 noundef 4, ptr noundef nonnull @.str, i32 noundef %1) #6
  br label %76

25:                                               ; preds = %12
  %.not36 = icmp eq ptr %2, null
  br i1 %.not36, label %26, label %36

26:                                               ; preds = %25
  %27 = load i8, ptr %0, align 8, !tbaa !3
  %28 = icmp eq i8 %27, 1
  br i1 %28, label %29, label %32

29:                                               ; preds = %26
  %30 = getelementptr inbounds nuw i8, ptr %0, i64 504
  %31 = tail call i32 @pthread_mutex_unlock(ptr noundef nonnull %30) #6
  br label %32

32:                                               ; preds = %26, %29
  %33 = getelementptr inbounds nuw i8, ptr %0, i64 72
  %34 = load ptr, ptr %33, align 8, !tbaa !23
  %35 = tail call i32 (ptr, i32, ptr, ...) %34(ptr noundef nonnull %0, i32 noundef 3, ptr noundef nonnull @.str.18) #6
  br label %76

36:                                               ; preds = %25
  %37 = getelementptr inbounds nuw i8, ptr %0, i64 472
  %38 = load ptr, ptr %37, align 8, !tbaa !24
  %39 = zext nneg i32 %1 to i64
  %40 = getelementptr inbounds nuw ptr, ptr %38, i64 %39
  %41 = load ptr, ptr %40, align 8, !tbaa !25
  %42 = getelementptr inbounds nuw i8, ptr %41, i64 104
  %43 = load ptr, ptr %42, align 8, !tbaa !89
  %.not37 = icmp eq ptr %43, null
  br i1 %.not37, label %70, label %44

44:                                               ; preds = %36
  %45 = getelementptr inbounds nuw i8, ptr %43, i64 20
  %46 = load i32, ptr %45, align 4, !tbaa !32
  %.not38 = icmp eq i32 %46, 19
  br i1 %.not38, label %60, label %47

47:                                               ; preds = %44
  %48 = load i8, ptr %0, align 8, !tbaa !3
  %49 = icmp eq i8 %48, 1
  br i1 %49, label %50, label %53

50:                                               ; preds = %47
  %51 = getelementptr inbounds nuw i8, ptr %0, i64 504
  %52 = tail call i32 @pthread_mutex_unlock(ptr noundef nonnull %51) #6
  %.pre = load ptr, ptr %42, align 8, !tbaa !89
  br label %53

53:                                               ; preds = %47, %50
  %54 = phi ptr [ %43, %47 ], [ %.pre, %50 ]
  %55 = getelementptr inbounds nuw i8, ptr %0, i64 72
  %56 = load ptr, ptr %55, align 8, !tbaa !23
  %57 = getelementptr inbounds nuw i8, ptr %54, i64 8
  %58 = load ptr, ptr %57, align 8, !tbaa !34
  %59 = tail call i32 (ptr, i32, ptr, ...) %56(ptr noundef nonnull %0, i32 noundef 6, ptr noundef nonnull @.str.19, ptr noundef %58) #6
  br label %76

60:                                               ; preds = %44
  %61 = getelementptr inbounds nuw i8, ptr %43, i64 24
  %62 = load ptr, ptr %61, align 8, !tbaa !35
  %63 = getelementptr inbounds nuw i8, ptr %62, i64 8
  %64 = load ptr, ptr %63, align 8, !tbaa !70
  store ptr %64, ptr %2, align 8, !tbaa !90
  %65 = load i8, ptr %0, align 8, !tbaa !3
  %66 = icmp eq i8 %65, 1
  br i1 %66, label %67, label %76

67:                                               ; preds = %60
  %68 = getelementptr inbounds nuw i8, ptr %0, i64 504
  %69 = tail call i32 @pthread_mutex_unlock(ptr noundef nonnull %68) #6
  br label %76

70:                                               ; preds = %36
  %71 = load i8, ptr %0, align 8, !tbaa !3
  %72 = icmp eq i8 %71, 1
  br i1 %72, label %73, label %76

73:                                               ; preds = %70
  %74 = getelementptr inbounds nuw i8, ptr %0, i64 504
  %75 = tail call i32 @pthread_mutex_unlock(ptr noundef nonnull %74) #6
  br label %76

76:                                               ; preds = %73, %70, %67, %60, %3, %53, %32, %21
  %.0 = phi i32 [ %24, %21 ], [ %59, %53 ], [ %35, %32 ], [ 2, %3 ], [ 0, %60 ], [ 0, %67 ], [ 15, %70 ], [ 15, %73 ]
  ret i32 %.0
}